target datalayout = "e-m:e-p270:32:32-p271:32:32-p272:64:64-i64:64-i128:128-f80:128-n8:16:32:64-S128"
target triple = "x86_64-pc-linux-gnu"

%struct.IDAMemRec = type { ptr, double, ptr, ptr, i32, double, double, ptr, i32, i32, ptr, ptr, i32, i32, [6 x ptr], [6 x double], [6 x double], [6 x double], [6 x double], [6 x double], ptr, ptr, ptr, ptr, ptr, ptr, ptr, ptr, ptr, ptr, ptr, ptr, ptr, ptr, ptr, ptr, ptr, double, ptr, ptr, i32, i32, i32, i32, i32, i32, i32, i32, double, double, double, i32, double, i32, i32, i32, i32, i32, double, double, double, double, double, double, double, double, double, double, double, double, double, double, double, double, i32, i32, i32, i32, i64, double, double, double, double, double, double, double, double, double, i64, i64, i64, i64, i64, i64, i64, i64, i64, i64, i64, double, i32, i32, i32, i32, i32, ptr, i32, ptr, ptr, ptr, ptr, ptr, ptr, ptr, double, i32, ptr, i32, ptr, ptr, double, double, double, ptr, ptr, ptr, double, double, i32, i32, i64, ptr, i32, [6 x double], [5 x double], [6 x ptr], [6 x ptr] }
%struct.IBBDPrecDataRec = type { i64, i64, i64, i64, double, ptr, ptr, i64, ptr, ptr, ptr, ptr, ptr, ptr, ptr, ptr, i64, i64, i64, ptr }
%struct.IDALsMemRec = type { i32, i32, i32, ptr, ptr, ptr, ptr, ptr, ptr, ptr, ptr, ptr, ptr, i32, double, double, double, i64, i64, i64, i64, i64, i64, i64, i64, i64, i64, i64, i64, i64, i64, double, i32, ptr, ptr, ptr, ptr, i32, ptr, ptr, ptr, ptr }

@.str = private unnamed_addr constant [116 x i8] c"generated/home/dtcxzyw/WorkSpace/Projects/compilers/llvm-opt-benchmark/bench/sundials/sundials/src/ida/ida_bbdpre.c\00", align 1
@.str.1 = private unnamed_addr constant [27 x i8] c"Integrator memory is NULL.\00", align 1
@.str.2 = private unnamed_addr constant [80 x i8] c"Linear solver memory is NULL. One of the SPILS linear solvers must be attached.\00", align 1
@.str.6 = private unnamed_addr constant [65 x i8] c"BBD peconditioner memory is NULL. IDABBDPrecInit must be called.\00", align 1
@__func__.IDABBDPrecGetWorkSpace = private unnamed_addr constant [23 x i8] c"IDABBDPrecGetWorkSpace\00", align 1

; Function Attrs: nounwind uwtable
define i32 @IDABBDPrecGetWorkSpace(ptr noundef %0, ptr noundef %1, ptr noundef %2) #0 {
  %4 = alloca i32, align 4
  %5 = alloca ptr, align 8
  %6 = alloca ptr, align 8
  %7 = alloca ptr, align 8
  %8 = alloca ptr, align 8
  %9 = alloca ptr, align 8
  %10 = alloca ptr, align 8
  %11 = alloca i32, align 4
  store ptr %0, ptr %5, align 8, !tbaa !3
  store ptr %1, ptr %6, align 8, !tbaa !72
  store ptr %2, ptr %7, align 8, !tbaa !72
  call void @llvm.lifetime.start.p0(i64 8, ptr %8) #6
  call void @llvm.lifetime.start.p0(i64 8, ptr %9) #6
  call void @llvm.lifetime.start.p0(i64 8, ptr %10) #6
  %12 = load ptr, ptr %5, align 8, !tbaa !3
  %13 = icmp eq ptr %12, null
  br i1 %13, label %14, label %15

14:                                               ; preds = %3
  call void (ptr, i32, i32, ptr, ptr, ptr, ...) @IDAProcessError(ptr noundef null, i32 noundef -1, i32 noundef 360, ptr noundef @__func__.IDABBDPrecGetWorkSpace, ptr noundef @.str, ptr noundef @.str.1)
  store i32 -1, ptr %4, align 4
  store i32 1, ptr %11, align 4
  br label %45

15:                                               ; preds = %3
  %16 = load ptr, ptr %5, align 8, !tbaa !3
  store ptr %16, ptr %8, align 8, !tbaa !11
  %17 = load ptr, ptr %8, align 8, !tbaa !11
  %18 = getelementptr inbounds nuw %struct.IDAMemRec, ptr %17, i32 0, i32 113
  %19 = load ptr, ptr %18, align 8, !tbaa !13
  %20 = icmp eq ptr %19, null
  br i1 %20, label %21, label %23

21:                                               ; preds = %15
  %22 = load ptr, ptr %8, align 8, !tbaa !11
  call void (ptr, i32, i32, ptr, ptr, ptr, ...) @IDAProcessError(ptr noundef %22, i32 noundef -2, i32 noundef 368, ptr noundef @__func__.IDABBDPrecGetWorkSpace, ptr noundef @.str, ptr noundef @.str.2)
  store i32 -2, ptr %4, align 4
  store i32 1, ptr %11, align 4
  br label %45

23:                                               ; preds = %15
  %24 = load ptr, ptr %8, align 8, !tbaa !11
  %25 = getelementptr inbounds nuw %struct.IDAMemRec, ptr %24, i32 0, i32 113
  %26 = load ptr, ptr %25, align 8, !tbaa !13
  store ptr %26, ptr %9, align 8, !tbaa !21
  %27 = load ptr, ptr %9, align 8, !tbaa !21
  %28 = getelementptr inbounds nuw %struct.IDALsMemRec, ptr %27, i32 0, i32 36
  %29 = load ptr, ptr %28, align 8, !tbaa !70
  %30 = icmp eq ptr %29, null
  br i1 %30, label %31, label %33

31:                                               ; preds = %23
  %32 = load ptr, ptr %8, align 8, !tbaa !11
  call void (ptr, i32, i32, ptr, ptr, ptr, ...) @IDAProcessError(ptr noundef %32, i32 noundef -5, i32 noundef 376, ptr noundef @__func__.IDABBDPrecGetWorkSpace, ptr noundef @.str, ptr noundef @.str.6)
  store i32 -5, ptr %4, align 4
  store i32 1, ptr %11, align 4
  br label %45

33:                                               ; preds = %23
  %34 = load ptr, ptr %9, align 8, !tbaa !21
  %35 = getelementptr inbounds nuw %struct.IDALsMemRec, ptr %34, i32 0, i32 36
  %36 = load ptr, ptr %35, align 8, !tbaa !70
  store ptr %36, ptr %10, align 8, !tbaa !29
  %37 = load ptr, ptr %10, align 8, !tbaa !29
  %38 = getelementptr inbounds nuw %struct.IBBDPrecDataRec, ptr %37, i32 0, i32 16
  %39 = load i64, ptr %38, align 8, !tbaa !54
  %40 = load ptr, ptr %6, align 8, !tbaa !72
  store i64 %39, ptr %40, align 8, !tbaa !7
  %41 = load ptr, ptr %10, align 8, !tbaa !29
  %42 = getelementptr inbounds nuw %struct.IBBDPrecDataRec, ptr %41, i32 0, i32 17
  %43 = load i64, ptr %42, align 8, !tbaa !55
  %44 = load ptr, ptr %7, align 8, !tbaa !72
  store i64 %43, ptr %44, align 8, !tbaa !7
  store i32 0, ptr %4, align 4
  store i32 1, ptr %11, align 4
  br label %45

45:                                               ; preds = %33, %31, %21, %14
  call void @llvm.lifetime.end.p0(i64 8, ptr %10) #6
  call void @llvm.lifetime.end.p0(i64 8, ptr %9) #6
  call void @llvm.lifetime.end.p0(i64 8, ptr %8) #6
  %46 = load i32, ptr %4, align 4
  ret i32 %46
}